target datalayout = "e-m:e-p270:32:32-p271:32:32-p272:64:64-i64:64-i128:128-f80:128-n8:16:32:64-S128"
target triple = "x86_64-pc-linux-gnu"

%struct.MinRegMan_t_ = type { i32, i32, i32, i32, i32, i32, i32, i32, i32, i32, i32, ptr, i32, i32, i32, i32, i32, i32, i32, i32, i32, ptr, ptr, ptr, ptr, ptr, ptr, ptr, ptr, ptr, i32 }

@pManMR = external global ptr, align 8

; Function Attrs: nounwind uwtable
define void @Abc_FlowRetime_InitState(ptr noundef %0) #0 {
  %2 = alloca ptr, align 8
  store ptr %0, ptr %2, align 8, !tbaa !3
  %3 = load ptr, ptr @pManMR, align 8, !tbaa !8
  %4 = getelementptr inbounds nuw %struct.MinRegMan_t_, ptr %3, i32 0, i32 1
  %5 = load i32, ptr %4, align 4, !tbaa !10
  %6 = icmp ne i32 %5, 0
  br i1 %6, label %8, label %7

7:                                                ; preds = %1
  br label %17

8:                                                ; preds = %1
  %9 = load ptr, ptr @pManMR, align 8, !tbaa !8
  %10 = getelementptr inbounds nuw %struct.MinRegMan_t_, ptr %9, i32 0, i32 13
  %11 = load i32, ptr %10, align 4, !tbaa !17
  %12 = icmp ne i32 %11, 0
  br i1 %12, label %13, label %15

13:                                               ; preds = %8
  %14 = load ptr, ptr %2, align 8, !tbaa !3
  call void @Abc_FlowRetime_UpdateForwardInit(ptr noundef %14)
  br label %17

15:                                               ; preds = %8
  %16 = load ptr, ptr %2, align 8, !tbaa !3
  call void @Abc_FlowRetime_UpdateBackwardInit(ptr noundef %16)
  br label %17

17:                                               ; preds = %7, %15, %13
  ret void
}