; Function Attrs: nounwind uwtable
define void @Abc_FlowRetime_InitState(ptr noundef captures(none) %0) local_unnamed_addr #0 {
  %2 = load ptr, ptr @pManMR, align 8, !tbaa !3
  %3 = getelementptr inbounds nuw i8, ptr %2, i64 4
  %4 = load i32, ptr %3, align 4, !tbaa !8
  %.not = icmp eq i32 %4, 0
  br i1 %.not, label %10, label %5

5:                                                ; preds = %1
  %6 = getelementptr inbounds nuw i8, ptr %2, i64 60
  %7 = load i32, ptr %6, align 4, !tbaa !16
  %.not2 = icmp eq i32 %7, 0
  br i1 %.not2, label %9, label %8

8:                                                ; preds = %5
  tail call void @Abc_FlowRetime_UpdateForwardInit(ptr noundef %0)
  br label %10

9:                                                ; preds = %5
  tail call void @Abc_FlowRetime_UpdateBackwardInit(ptr noundef %0)
  br label %10

10:                                               ; preds = %1, %9, %8
  ret void
}